Certificate:
    Data:
        Version: 3 (0x2)
        Serial Number:
            fa:23:59:dc:ee:f3:bf:eb
    Signature Algorithm: sha256WithRSAEncryption
        Issuer: C=XX, L=Default City, O=Default Company Ltd
        Validity
            Not Before: Sep 18 13:11:43 2018 GMT
            Not After : Oct 18 13:11:43 2018 GMT
        Subject: C=XX, L=Default City, O=Default Company Ltd
        Subject Public Key Info:
            Public Key Algorithm: rsaEncryption
                Public-Key: (2048 bit)
                Modulus:
                    00:b6:e5:80:f0:9e:41:1a:a9:ed:3e:ec:18:c9:8e:
                    fb:1c:4b:a7:50:27:d9:65:86:aa:48:e9:13:33:ed:
                    ac:08:3e:8a:63:59:f3:6d:52:e7:b0:f8:d8:b5:77:
                    3f:00:17:23:b3:96:8c:06:1d:b5:a4:48:de:5a:31:
                    98:5f:fb:1e:34:79:93:0d:fe:24:08:9d:6f:00:3b:
                    65:c0:ab:7b:1b:3b:53:50:1d:21:96:8a:19:01:99:
                    b5:98:62:d3:fc:5d:da:a2:a8:9a:d8:d7:87:55:0e:
                    ad:38:2f:e7:a7:a8:e2:7b:bf:57:44:68:7d:29:70:
                    21:00:f6:40:16:91:25:4b:0d:41:9d:3a:65:f3:c4:
                    1a:d5:28:6f:84:7a:2b:4e:9b:56:17:d1:ef:52:a0:
                    a5:6f:39:2a:66:b4:df:08:a9:00:c2:dc:62:c9:08:
                    32:0d:0d:1a:7f:70:a4:13:13:75:33:b8:7a:54:bb:
                    73:ab:86:79:1a:53:bc:6a:60:c9:7c:34:1f:2b:56:
                    fa:0c:9a:00:16:21:9c:0c:b0:b1:67:ab:39:8f:5e:
                    fe:42:fb:6c:82:96:4f:dc:f9:8b:18:5f:2e:40:01:
                    1a:70:e8:b6:43:25:8c:c3:66:b0:ce:88:3b:ff:89:
                    15:24:85:f0:ca:75:73:c2:8b:d3:30:8b:72:21:41:
                    8f:b7
                Exponent: 65537 (0x10001)
        X509v3 extensions:
            X509v3 Subject Key Identifier: 
                31:56:5F:87:15:45:7F:10:50:35:FE:5E:CC:69:1B:BE:D0:17:E3:42
            X509v3 Authority Key Identifier: 
                keyid:31:56:5F:87:15:45:7F:10:50:35:FE:5E:CC:69:1B:BE:D0:17:E3:42

            X509v3 Basic Constraints: 
                CA:TRUE
    Signature Algorithm: sha256WithRSAEncryption
         4c:a8:c1:de:f1:2e:2d:8c:16:13:a6:0e:75:43:31:40:7b:74:
         bf:5b:bb:26:63:00:f4:3e:30:22:5d:7d:12:68:3a:9c:99:47:
         76:24:03:7c:d4:c7:13:df:5e:6e:61:b6:01:ff:b7:04:6c:4a:
         4b:bf:5f:b5:fa:17:a7:58:80:da:a6:32:f2:ed:86:fd:82:79:
         d9:0d:a1:4c:59:15:3f:82:ba:74:2a:ad:07:05:b3:fe:26:37:
         66:c1:07:31:c5:91:34:a9:d0:38:ac:af:14:51:db:13:53:57:
         ae:20:6a:60:d5:4f:2a:59:80:10:ee:8b:27:87:83:7d:92:b2:
         de:69:13:7c:5f:b3:91:ea:a9:25:c0:63:f0:24:a5:6f:79:eb:
         47:50:8c:69:a7:4a:42:12:61:ce:f3:d7:dc:f9:0e:da:f2:f7:
         a3:bc:8f:cd:6f:4c:b2:d6:48:bb:73:54:1f:fa:c4:e2:10:17:
         58:9b:34:4a:34:17:c1:53:95:a8:68:77:b6:03:cf:bb:51:8e:
         2f:8e:dd:3b:05:81:e7:da:3f:b0:cb:8f:58:63:5f:e2:b4:03:
         a3:24:4f:b0:8c:1c:01:a1:9d:e0:9b:a0:92:04:6d:cc:72:c6:
         b0:10:53:f0:6c:14:e3:97:1e:47:64:3a:0c:65:87:d0:51:c3:
         43:d4:47:85
-----BEGIN CERTIFICATE-----
MIIDVzCCAj+gAwIBAgIJAPojWdzu87/rMA0GCSqGSIb3DQEBCwUAMEIxCzAJBgNV
BAYTAlhYMRUwEwYDVQQHDAxEZWZhdWx0IENpdHkxHDAaBgNVBAoME0RlZmF1bHQg
Q29tcGFueSBMdGQwHhcNMTgwOTE4MTMxMTQzWhcNMTgxMDE4MTMxMTQzWjBCMQsw
CQYDVQQGEwJYWDEVMBMGA1UEBwwMRGVmYXVsdCBDaXR5MRwwGgYDVQQKDBNEZWZh
dWx0IENvbXBhbnkgTHRkMIIBIjANBgkqhkiG9w0BAQEFAAOCAQ8AMIIBCgKCAQEA
tuWA8J5BGqntPuwYyY77HEunUCfZZYaqSOkTM+2sCD6KY1nzbVLnsPjYtXc/ABcj
s5aMBh21pEjeWjGYX/seNHmTDf4kCJ1vADtlwKt7GztTUB0hlooZAZm1mGLT/F3a
oqia2NeHVQ6tOC/np6jie79XRGh9KXAhAPZAFpElSw1BnTpl88Qa1ShvhHorTptW
F9HvUqClbzkqZrTfCKkAwtxiyQgyDQ0af3CkExN1M7h6VLtzq4Z5GlO8amDJfDQf
K1b6DJoAFiGcDLCxZ6s5j17+QvtsgpZP3PmLGF8uQAEacOi2QyWMw2awzog7/4kV
JIXwynVzwovTMItyIUGPtwIDAQABo1AwTjAdBgNVHQ4EFgQUMVZfhxVFfxBQNf5e
zGkbvtAX40IwHwYDVR0jBBgwFoAUMVZfhxVFfxBQNf5ezGkbvtAX40IwDAYDVR0T
BAUwAwEB/zANBgkqhkiG9w0BAQsFAAOCAQEATKjB3vEuLYwWE6YOdUMxQHt0v1u7
JmMA9D4wIl19Emg6nJlHdiQDfNTHE99ebmG2Af+3BGxKS79ftfoXp1iA2qYy8u2G
/YJ52Q2hTFkVP4K6dCqtBwWz/iY3ZsEHMcWRNKnQOKyvFFHbE1NXriBqYNVPKlmA
EO6LJ4eDfZKy3mkTfF+zkeqpJcBj8CSlb3nrR1CMaadKQhJhzvPX3PkO2vL3o7yP
zW9MstZIu3NUH/rE4hAXWJs0SjQXwVOVqGh3tgPPu1GOL47dOwWB59o/sMuPWGNf
4rQDoyRPsIwcAaGd4JugkgRtzHLGsBBT8GwU45ceR2Q6DGWH0FHDQ9RHhQ==
-----END CERTIFICATE-----
